Certificate:
    Data:
        Version: 3 (0x2)
        Serial Number: 1 (0x1)
        Signature Algorithm: sha512WithRSAEncryption
        Issuer: C=DE, O=Damaschkestr. 11, OU=Arbeitszimmer, CN=Test1 Lab Component CA
        Validity
            Not Before: Dec 12 08:09:56 2022 GMT
            Not After : Dec 12 23:59:59 2025 GMT
        Subject: C=DE, ST=Thueringen, L=Rudolstadt, O=Damaschkestr. 11, OU=Arbeitszimmer, CN=rfc3161timestampingserver_QA_TEST_TSA
        Subject Public Key Info:
            Public Key Algorithm: rsaEncryption
                RSA Public-Key: (2048 bit)
                Modulus:
                    00:d3:46:8a:39:ce:92:67:11:57:76:10:53:48:a0:
                    81:4b:58:29:dc:b2:da:f2:b4:3a:98:5b:08:24:a1:
                    3d:c4:6b:0d:40:94:6d:79:06:34:cc:7f:7e:3f:6a:
                    13:dd:22:2a:1f:b0:24:74:ed:58:7a:9f:8c:a0:cd:
                    fa:5e:dc:ab:7f:04:a7:57:e6:af:70:63:59:4b:69:
                    d6:26:de:10:60:3f:ea:a9:c2:6d:1c:d5:d4:56:cb:
                    99:63:67:6f:8e:bf:cf:5e:a2:1f:d8:b5:62:24:7a:
                    77:ac:c8:69:80:5f:73:12:af:0c:3e:ab:aa:1d:99:
                    19:2b:33:6d:40:c2:1f:bd:6a:7f:72:20:08:96:8c:
                    49:12:20:81:91:d1:10:87:55:35:34:74:f2:19:a9:
                    c6:0f:fa:28:24:6f:1c:8c:22:fc:37:6b:da:38:36:
                    1e:4e:6f:43:4e:7c:41:96:d6:06:6f:c1:c5:7c:3d:
                    28:fe:1f:98:fc:da:74:79:cb:22:25:62:c1:0b:64:
                    05:62:41:7d:80:8b:1e:c5:d0:78:1d:8d:20:d5:5f:
                    b5:93:80:e6:5a:d3:52:e5:e9:8e:e1:49:06:52:7f:
                    0f:36:e4:90:da:81:7b:53:dc:8b:52:f3:f1:25:d1:
                    78:95:fe:d8:b0:03:2c:ba:52:97:64:0e:79:ce:1d:
                    d9:af
                Exponent: 65537 (0x10001)
        X509v3 extensions:
            X509v3 Key Usage: critical
                Digital Signature, Non Repudiation
            X509v3 Basic Constraints:
                CA:FALSE
            X509v3 Extended Key Usage: critical
                Time Stamping
            X509v3 Subject Key Identifier:
                23:D5:28:7A:69:1E:55:EF:DA:9B:5C:C5:84:32:97:A9:85:BD:70:11
            X509v3 Authority Key Identifier:
                keyid:56:67:AD:11:9B:0E:21:E1:C2:BA:27:92:FD:C4:11:0F:FE:D5:EC:D9

            Authority Information Access:
                CA Issuers - URI:https://elbosso.github.io/x509//Test1_Component_CA-ca.crt

            X509v3 CRL Distribution Points:

                Full Name:
                  URI:https://elbosso.github.io/x509//Test1_Component_CA-ca.crl

            CT Precertificate Poison: critical
                NULL
    Signature Algorithm: sha512WithRSAEncryption
         4e:64:26:2d:f9:30:eb:38:20:4b:17:b4:cb:a3:1a:c0:48:7a:
         7a:c5:48:0a:d5:b7:ef:d9:61:c3:d8:c6:d2:11:9d:a6:63:5d:
         2e:fe:5f:4d:2c:79:fc:6e:3f:45:05:63:a0:a0:c7:e1:86:50:
         0a:7c:49:50:4e:35:e3:8a:23:a2:63:0c:60:57:bd:3d:2b:7d:
         96:e6:64:e7:76:9b:d8:9f:b3:a7:6b:89:7a:0e:4e:a3:ac:b4:
         87:fa:a8:3d:75:f9:b7:93:07:c4:df:20:be:f7:7e:23:cd:c2:
         6a:e8:a0:f6:7d:66:d4:0e:92:f9:8b:0c:dc:72:55:ea:5c:a5:
         ef:23:d3:a7:fd:e2:fa:63:20:4e:55:85:57:9d:00:b0:df:b5:
         ac:6e:40:5d:f7:97:70:48:55:3f:50:be:e0:6f:2e:12:6d:d6:
         43:f5:24:7d:34:f3:f8:d7:17:b8:1e:57:4d:54:19:50:e3:41:
         7a:7f:13:a3:ec:5a:75:32:52:e4:c4:4e:fa:9f:06:a6:53:81:
         12:26:1c:5d:97:a7:77:6f:07:3a:65:d3:67:ea:d1:d1:6b:66:
         6a:55:23:b4:26:1e:21:45:fb:25:e2:ac:3d:9f:a6:3c:a9:8e:
         34:ce:e7:87:77:b3:f4:18:d4:30:b6:b1:a7:92:33:15:72:21:
         0a:66:01:a3:53:77:f8:8a:0e:6a:34:9b:d3:cf:35:f1:b2:00:
         e8:60:a7:a0:4e:fa:dc:59:58:f5:b3:30:63:87:e6:67:97:58:
         b5:17:c8:89:bc:c1:6a:08:be:7e:32:49:b4:e8:df:06:49:14:
         67:be:a0:17:9b:5b:11:f6:da:fd:d4:7b:7c:12:af:f2:56:98:
         5c:63:84:d5:fe:3a:37:df:0c:45:22:09:01:36:5e:98:fc:74:
         3e:28:11:80:25:9d:1b:14:12:7a:28:b7:ca:60:76:a5:70:75:
         84:d2:67:9c:c1:11:de:62:82:87:8d:fc:90:78:21:ba:ba:f3:
         75:86:0b:10:29:3f:db:6a:02:83:2e:5a:c9:41:39:89:77:5c:
         09:11:69:cf:06:ca:f6:49:fa:11:1a:04:3f:d3:07:56:3b:bb:
         63:f5:3a:8d:f6:df:63:fd:9b:97:3f:43:5d:2c:e1:28:ef:d9:
         b1:6e:4d:88:da:42:e9:6e:e9:b4:6c:20:5d:48:fd:5d:08:f1:
         3f:da:7f:29:49:51:55:41:02:e9:af:9f:7b:1f:e5:0a:65:41:
         c2:c6:56:8b:3a:8d:ab:5a:09:88:75:c7:d8:27:27:b0:c8:0e:
         28:8a:39:83:ff:b7:52:f8:ef:07:b0:7c:16:65:0e:38:98:7a:
         06:03:3a:de:a1:59:a4:1c
-----BEGIN CERTIFICATE-----
MIIFqDCCA5CgAwIBAgIBATANBgkqhkiG9w0BAQ0FADBhMQswCQYDVQQGEwJERTEZ
MBcGA1UECgwQRGFtYXNjaGtlc3RyLiAxMTEWMBQGA1UECwwNQXJiZWl0c3ppbW1l
cjEfMB0GA1UEAwwWVGVzdDEgTGFiIENvbXBvbmVudCBDQTAeFw0yMjEyMTIwODA5
NTZaFw0yNTEyMTIyMzU5NTlaMIGaMQswCQYDVQQGEwJERTETMBEGA1UECAwKVGh1
ZXJpbmdlbjETMBEGA1UEBwwKUnVkb2xzdGFkdDEZMBcGA1UECgwQRGFtYXNjaGtl
c3RyLiAxMTEWMBQGA1UECwwNQXJiZWl0c3ppbW1lcjEuMCwGA1UEAwwlcmZjMzE2
MXRpbWVzdGFtcGluZ3NlcnZlcl9RQV9URVNUX1RTQTCCASIwDQYJKoZIhvcNAQEB
BQADggEPADCCAQoCggEBANNGijnOkmcRV3YQU0iggUtYKdyy2vK0OphbCCShPcRr
DUCUbXkGNMx/fj9qE90iKh+wJHTtWHqfjKDN+l7cq38Ep1fmr3BjWUtp1ibeEGA/
6qnCbRzV1FbLmWNnb46/z16iH9i1YiR6d6zIaYBfcxKvDD6rqh2ZGSszbUDCH71q
f3IgCJaMSRIggZHREIdVNTR08hmpxg/6KCRvHIwi/Ddr2jg2Hk5vQ058QZbWBm/B
xXw9KP4fmPzadHnLIiViwQtkBWJBfYCLHsXQeB2NINVftZOA5lrTUuXpjuFJBlJ/
DzbkkNqBe1Pci1Lz8SXReJX+2LADLLpSl2QOec4d2a8CAwEAAaOCAS8wggErMA4G
A1UdDwEB/wQEAwIGwDAJBgNVHRMEAjAAMBYGA1UdJQEB/wQMMAoGCCsGAQUFBwMI
MB0GA1UdDgQWBBQj1Sh6aR5V79qbXMWEMpephb1wETAfBgNVHSMEGDAWgBRWZ60R
mw4h4cK6J5L9xBEP/tXs2TBVBggrBgEFBQcBAQRJMEcwRQYIKwYBBQUHMAKGOWh0
dHBzOi8vZWxib3Nzby5naXRodWIuaW8veDUwOS8vVGVzdDFfQ29tcG9uZW50X0NB
LWNhLmNydDBKBgNVHR8EQzBBMD+gPaA7hjlodHRwczovL2VsYm9zc28uZ2l0aHVi
LmlvL3g1MDkvL1Rlc3QxX0NvbXBvbmVudF9DQS1jYS5jcmwwEwYKKwYBBAHWeQIE
AwEB/wQCBQAwDQYJKoZIhvcNAQENBQADggIBAE5kJi35MOs4IEsXtMujGsBIenrF
SArVt+/ZYcPYxtIRnaZjXS7+X00sefxuP0UFY6Cgx+GGUAp8SVBONeOKI6JjDGBX
vT0rfZbmZOd2m9ifs6driXoOTqOstIf6qD11+beTB8TfIL73fiPNwmrooPZ9ZtQO
kvmLDNxyVepcpe8j06f94vpjIE5VhVedALDftaxuQF33l3BIVT9QvuBvLhJt1kP1
JH008/jXF7geV01UGVDjQXp/E6PsWnUyUuTETvqfBqZTgRImHF2Xp3dvBzpl02fq
0dFrZmpVI7QmHiFF+yXirD2fpjypjjTO54d3s/QY1DC2saeSMxVyIQpmAaNTd/iK
Dmo0m9PPNfGyAOhgp6BO+txZWPWzMGOH5meXWLUXyIm8wWoIvn4ySbTo3wZJFGe+
oBebWxH22v3Ue3wSr/JWmFxjhNX+OjffDEUiCQE2Xpj8dD4oEYAlnRsUEnoot8pg
dqVwdYTSZ5zBEd5igoeN/JB4Ibq683WGCxApP9tqAoMuWslBOYl3XAkRac8GyvZJ
+hEaBD/TB1Y7u2P1Oo3232P9m5c/Q10s4Sjv2bFuTYjaQulu6bRsIF1I/V0I8T/a
fylJUVVBAumvn3sf5QplQcLGVos6jataCYh1x9gnJ7DIDiiKOYP/t1L47wewfBZl
DjiYegYDOt6hWaQc
-----END CERTIFICATE-----