Certificate:
    Data:
        Version: 3 (0x2)
        Serial Number: 4 (0x4)
        Signature Algorithm: sha512WithRSAEncryption
        Issuer: C=DE, O=Damaschkestr. 11, OU=Arbeitszimmer, CN=Dama11 Lab Intermediary Test CA
        Validity
            Not Before: Oct 27 16:04:08 2019 GMT
            Not After : Oct 27 23:59:59 2022 GMT
        Subject: C=DE, O=Damaschkestr. 11, OU=Arbeitszimmer, CN=test comp
        Subject Public Key Info:
            Public Key Algorithm: rsaEncryption
                RSA Public-Key: (1024 bit)
                Modulus:
                    00:ee:20:0f:8d:d3:63:da:28:82:fe:04:4a:aa:12:
                    02:52:19:39:54:76:2c:7d:b2:15:7f:70:ff:c6:42:
                    6b:0a:fb:db:d3:c3:af:b3:3d:36:c0:b0:9e:f5:7d:
                    89:f9:60:d4:33:c5:52:7f:d4:f6:9b:ad:ad:af:70:
                    ef:6e:7d:63:85:b6:f3:fe:60:9a:ed:e4:a5:07:ec:
                    70:df:c7:f1:be:29:ee:3b:ce:70:86:10:6d:7d:7c:
                    47:d1:c0:53:08:d3:c0:9c:00:77:a8:c0:27:c8:d8:
                    9d:80:fd:88:35:78:ae:aa:11:6e:0b:0b:68:23:d9:
                    17:9f:9b:5b:02:1d:b9:f0:79
                Exponent: 65537 (0x10001)
        X509v3 extensions:
            X509v3 Key Usage: critical
                Certificate Sign, CRL Sign
            X509v3 Basic Constraints: critical
                CA:TRUE, pathlen:0
            X509v3 Subject Key Identifier: 
                58:BB:4C:11:9B:02:17:F1:93:EA:EE:FC:D7:D0:E0:38:28:2F:E9:9A
            X509v3 Authority Key Identifier: 
                keyid:E8:9A:25:D6:31:41:C2:C7:43:10:47:DA:64:E7:69:4A:C3:F3:4B:27

            Authority Information Access: 
                CA Issuers - URI:https://elbosso.github.io/x509//Dama11_Intermediary_Test_CA-ca.crt

            X509v3 CRL Distribution Points: 

                Full Name:
                  URI:https://elbosso.github.io/x509//Dama11_Intermediary_Test_CA-ca.crl

    Signature Algorithm: sha512WithRSAEncryption
         12:7c:51:56:31:ae:4b:6c:0a:9b:b8:38:83:e6:f5:3d:69:fa:
         37:d5:97:90:21:91:f6:20:70:cb:76:8f:a8:a0:7a:87:3a:bd:
         5a:39:dc:06:b2:6a:b0:c3:68:2e:08:0e:1a:6b:f2:e2:83:ef:
         e8:82:73:52:83:3e:6e:a6:62:57:11:4d:d3:80:28:ba:cd:3e:
         c5:8b:b8:f1:00:09:71:8e:d1:d2:99:2b:b9:e7:bf:6a:c3:37:
         40:5e:53:19:dc:e6:76:d1:53:b7:2d:43:38:52:5b:a4:ee:44:
         da:ab:ae:0b:4d:38:b7:37:05:6d:a3:4c:c2:bb:cf:5b:e1:51:
         d5:f6:63:74:c2:37:e9:fb:ee:95:67:7d:85:b3:44:c9:ba:e2:
         a5:5a:9d:f1:c2:76:3b:e3:01:d1:92:6c:92:f3:49:ed:cb:d5:
         71:34:4e:f7:0e:e2:1f:66:86:95:7a:36:87:10:b5:7b:de:1b:
         40:cb:c9:83:6e:80:c4:ce:dd:19:5a:2b:be:00:8c:79:57:e6:
         b5:ff:ca:05:cd:02:61:e8:b6:b1:d7:83:09:60:6f:72:db:1e:
         4a:41:30:48:aa:d4:f0:bf:c5:48:08:af:4a:97:89:ed:ab:63:
         ff:fe:cd:5e:1d:38:93:a7:a0:83:ec:c5:22:1b:4b:6e:ae:72:
         9e:67:2d:d0:32:60:06:2a:0e:06:ce:d4:39:e2:34:f8:46:6f:
         4f:b3:15:ec:4c:b6:15:08:c4:9e:67:a3:e9:cb:67:84:ec:a6:
         6f:06:1e:04:a8:30:d8:c7:f9:e2:ad:2e:c4:45:ab:82:9f:f3:
         41:a9:54:16:df:af:c6:c6:03:89:ee:b6:61:52:82:7d:91:40:
         b6:ed:0c:67:d3:dd:1a:0d:9f:0b:6f:19:f1:5a:75:1e:3d:26:
         df:05:42:dd:fb:c6:4e:0d:d4:9b:91:45:fd:36:3c:fe:ba:8d:
         00:ea:44:1d:8a:f2:89:02:22:4d:dc:f0:f7:b6:f6:f2:22:7c:
         c0:49:30:17:8c:75:12:7c:9f:38:66:93:c9:7c:47:7b:53:bf:
         ae:16:87:12:a6:31:c6:e8:d7:54:7b:f5:42:3c:9e:ab:5d:32:
         f8:39:b4:ed:0b:06:e7:93:11:88:fd:2f:f3:e8:02:de:b9:5a:
         f1:bd:29:33:be:74:23:8e:94:7f:af:2e:e9:02:81:d6:a5:8b:
         bb:a9:5c:1d:b8:04:6e:05:2b:e8:89:e9:60:77:df:6e:85:73:
         6d:89:10:f7:8b:e5:01:04:66:62:da:34:e6:46:f3:fd:b1:02:
         7c:cb:97:29:b1:ef:25:6e:29:bf:fb:0e:76:d3:02:92:ff:75:
         95:8f:76:29:27:4c:9e:b8
-----BEGIN CERTIFICATE-----
MIIE1DCCArygAwIBAgIBBDANBgkqhkiG9w0BAQ0FADBqMQswCQYDVQQGEwJERTEZ
MBcGA1UECgwQRGFtYXNjaGtlc3RyLiAxMTEWMBQGA1UECwwNQXJiZWl0c3ppbW1l
cjEoMCYGA1UEAwwfRGFtYTExIExhYiBJbnRlcm1lZGlhcnkgVGVzdCBDQTAeFw0x
OTEwMjcxNjA0MDhaFw0yMjEwMjcyMzU5NTlaMFQxCzAJBgNVBAYTAkRFMRkwFwYD
VQQKDBBEYW1hc2Noa2VzdHIuIDExMRYwFAYDVQQLDA1BcmJlaXRzemltbWVyMRIw
EAYDVQQDDAl0ZXN0IGNvbXAwgZ8wDQYJKoZIhvcNAQEBBQADgY0AMIGJAoGBAO4g
D43TY9oogv4ESqoSAlIZOVR2LH2yFX9w/8ZCawr729PDr7M9NsCwnvV9iflg1DPF
Un/U9putra9w7259Y4W28/5gmu3kpQfscN/H8b4p7jvOcIYQbX18R9HAUwjTwJwA
d6jAJ8jYnYD9iDV4rqoRbgsLaCPZF5+bWwIdufB5AgMBAAGjggEdMIIBGTAOBgNV
HQ8BAf8EBAMCAQYwEgYDVR0TAQH/BAgwBgEB/wIBADAdBgNVHQ4EFgQUWLtMEZsC
F/GT6u7819DgOCgv6ZowHwYDVR0jBBgwFoAU6Jol1jFBwsdDEEfaZOdpSsPzSycw
XgYIKwYBBQUHAQEEUjBQME4GCCsGAQUFBzAChkJodHRwczovL2VsYm9zc28uZ2l0
aHViLmlvL3g1MDkvL0RhbWExMV9JbnRlcm1lZGlhcnlfVGVzdF9DQS1jYS5jcnQw
UwYDVR0fBEwwSjBIoEagRIZCaHR0cHM6Ly9lbGJvc3NvLmdpdGh1Yi5pby94NTA5
Ly9EYW1hMTFfSW50ZXJtZWRpYXJ5X1Rlc3RfQ0EtY2EuY3JsMA0GCSqGSIb3DQEB
DQUAA4ICAQASfFFWMa5LbAqbuDiD5vU9afo31ZeQIZH2IHDLdo+ooHqHOr1aOdwG
smqww2guCA4aa/Lig+/ognNSgz5upmJXEU3TgCi6zT7Fi7jxAAlxjtHSmSu5579q
wzdAXlMZ3OZ20VO3LUM4Uluk7kTaq64LTTi3NwVto0zCu89b4VHV9mN0wjfp++6V
Z32Fs0TJuuKlWp3xwnY74wHRkmyS80nty9VxNE73DuIfZoaVejaHELV73htAy8mD
boDEzt0ZWiu+AIx5V+a1/8oFzQJh6Lax14MJYG9y2x5KQTBIqtTwv8VICK9Kl4nt
q2P//s1eHTiTp6CD7MUiG0turnKeZy3QMmAGKg4GztQ54jT4Rm9PsxXsTLYVCMSe
Z6Ppy2eE7KZvBh4EqDDYx/nirS7ERauCn/NBqVQW36/GxgOJ7rZhUoJ9kUC27Qxn
090aDZ8LbxnxWnUePSbfBULd+8ZODdSbkUX9Njz+uo0A6kQdivKJAiJN3PD3tvby
InzASTAXjHUSfJ84ZpPJfEd7U7+uFocSpjHG6NdUe/VCPJ6rXTL4ObTtCwbnkxGI
/S/z6ALeuVrxvSkzvnQjjpR/ry7pAoHWpYu7qVwduARuBSvoielgd99uhXNtiRD3
i+UBBGZi2jTmRvP9sQJ8y5cpse8lbim/+w520wKS/3WVj3YpJ0yeuA==
-----END CERTIFICATE-----
Certificate:
    Data:
        Version: 3 (0x2)
        Serial Number: 3 (0x3)
        Signature Algorithm: sha512WithRSAEncryption
        Issuer: C=DE, O=Damaschkestr. 11, OU=Arbeitszimmer, CN=Dama11 Lab Root CA
        Validity
            Not Before: Oct 27 12:04:50 2019 GMT
            Not After : Dec 31 23:59:59 2025 GMT
        Subject: C=DE, O=Damaschkestr. 11, OU=Arbeitszimmer, CN=Dama11 Lab Intermediary Test CA
        Subject Public Key Info:
            Public Key Algorithm: rsaEncryption
                RSA Public-Key: (4096 bit)
                Modulus:
                    00:b5:af:de:98:e2:95:20:d0:d5:b1:5f:38:a4:9f:
                    0f:de:c8:79:77:55:36:b2:ca:ac:62:19:e8:ab:f6:
                    9d:01:c1:39:96:ec:96:7b:c7:3b:45:81:d2:67:d5:
                    65:f6:75:70:88:44:77:57:ad:c8:74:b5:43:9f:ca:
                    9b:3d:ac:f7:1e:52:10:2e:a8:f8:cc:39:57:52:a5:
                    af:7a:19:49:fd:03:0c:17:4c:c0:c6:97:9c:3b:0c:
                    35:32:af:16:07:f4:4a:e2:d2:42:ff:a2:8e:3c:f5:
                    02:7f:87:3a:7f:52:23:be:0c:ee:98:2b:ab:bd:bd:
                    e0:ad:88:61:1d:d6:40:bf:10:17:3b:ef:69:45:16:
                    c4:65:8b:8e:b6:e7:36:7f:75:6c:64:25:b1:b8:f7:
                    42:b4:3c:cb:58:f0:18:ec:97:a3:9b:35:ea:bd:03:
                    11:d8:3a:80:ad:ad:ba:95:9c:3c:0e:2a:16:3b:81:
                    1c:fb:74:21:5d:15:30:5f:3c:f8:66:32:85:e3:b3:
                    37:7c:af:48:11:1f:1b:73:59:9e:bd:bf:af:41:a3:
                    d2:28:c1:67:f5:b4:7e:6e:34:45:f3:4e:49:f9:c0:
                    23:bb:21:06:d1:d3:e9:c9:f9:af:59:ae:7e:45:c0:
                    91:d1:ce:e3:5f:e8:af:51:80:c4:4e:6b:52:38:6d:
                    94:c8:f5:c1:bc:a4:1c:ee:43:63:ce:61:bc:c9:37:
                    47:d8:bf:01:1c:38:31:c1:50:cd:92:0e:3e:88:7d:
                    5b:bc:0f:bd:26:18:0f:fc:39:67:f2:61:eb:4e:c7:
                    f6:52:8b:a4:8b:60:bf:1a:9e:dd:46:d2:02:da:93:
                    5f:47:6f:c7:2e:f3:84:99:87:2b:1e:15:86:1a:84:
                    39:6f:b3:d7:0b:08:1b:85:72:16:4f:e2:fa:0b:05:
                    2f:72:e5:fe:64:1c:99:7c:bc:2d:52:ff:da:ad:29:
                    a7:c7:74:c0:18:0f:65:d4:e4:f4:5f:82:05:89:b9:
                    af:b2:b8:5b:4d:e8:52:58:8d:39:15:31:90:ab:12:
                    02:54:47:17:23:39:2c:7c:12:9e:f1:ef:6d:69:cb:
                    1d:e9:31:81:70:74:f3:7c:b0:08:6a:37:4f:41:bf:
                    d7:2b:6f:9b:36:0c:79:a0:3a:17:6c:2d:47:1c:3f:
                    9f:cd:80:70:c1:aa:86:56:70:2e:5d:64:ab:a1:a4:
                    0b:9b:eb:11:e9:1c:5a:a5:db:36:9d:5e:13:df:e3:
                    5c:d0:07:f6:8e:20:58:0f:24:77:0b:d5:73:74:e5:
                    de:dd:02:f4:14:ac:8e:c6:69:e0:ee:c4:11:d4:03:
                    a2:4d:40:3c:7d:78:89:49:93:3b:34:82:4d:a7:cc:
                    0a:7c:47
                Exponent: 65537 (0x10001)
        X509v3 extensions:
            X509v3 Key Usage: critical
                Certificate Sign, CRL Sign
            X509v3 Basic Constraints: critical
                CA:TRUE
            X509v3 Subject Key Identifier: 
                E8:9A:25:D6:31:41:C2:C7:43:10:47:DA:64:E7:69:4A:C3:F3:4B:27
            X509v3 Authority Key Identifier: 
                keyid:01:B2:2D:56:3C:87:7F:A8:5F:61:BC:58:01:BF:1E:FD:4A:CA:CA:8D

            Authority Information Access: 
                CA Issuers - URI:https://elbosso.github.io/x509//Dama11_Root_CA-ca.crt

            X509v3 CRL Distribution Points: 

                Full Name:
                  URI:https://elbosso.github.io/x509//Dama11_Root_CA-ca.crl

    Signature Algorithm: sha512WithRSAEncryption
         08:5e:dd:6f:c8:d2:8a:b2:2b:8d:2e:d7:6f:7d:4f:02:9e:07:
         93:18:b2:cb:62:4a:f9:84:2d:02:13:92:25:5d:b1:5a:23:1f:
         6a:2d:d3:32:d5:6b:5e:e5:b4:71:52:b9:62:29:3d:cf:ac:78:
         5c:d8:a9:a3:00:0b:65:02:36:da:ef:86:dd:f9:9b:d3:ee:5d:
         b9:da:86:ca:40:b7:9b:c8:28:2b:03:a2:10:7c:25:3d:32:ee:
         50:01:64:91:af:87:f2:bd:db:b2:0e:d1:aa:00:93:af:90:d2:
         50:a9:51:be:60:f7:3c:4a:68:bd:78:9f:6f:94:a0:b3:30:81:
         2e:37:93:d8:f7:7e:a5:11:66:82:ae:4e:b5:66:37:e8:89:3d:
         e1:71:e5:09:26:e0:4d:3f:a8:12:72:71:87:35:8f:ed:63:b5:
         61:fb:06:b3:6e:c6:d8:4e:55:d9:ee:2c:da:33:bb:ff:8a:41:
         94:17:51:2f:c4:ba:12:86:a6:7b:21:e7:27:a9:ce:c2:d5:3d:
         8d:80:16:4b:5c:91:eb:9e:30:ea:a8:a0:ec:b0:1c:79:53:e4:
         33:4e:60:3d:05:a2:8c:52:c8:cb:5b:2f:4f:2f:ba:48:6a:2a:
         d0:7f:c0:85:0b:67:b4:00:84:96:00:f6:0c:02:97:39:1b:cd:
         69:0c:45:95:a8:da:37:78:77:7d:f8:ee:53:4f:a1:8d:27:6c:
         e3:4d:45:96:6e:18:fc:32:1d:10:3c:c1:00:b7:3a:ce:dc:52:
         95:94:0c:f9:bf:c2:98:04:51:f8:1f:17:ed:d2:77:11:04:50:
         d5:2f:cf:66:ed:30:f7:ab:dc:a5:a5:b0:8f:d0:4f:46:18:44:
         f7:0b:4f:2f:85:69:58:f4:62:d6:a3:95:3e:53:88:f7:15:63:
         19:5f:c6:0a:17:f5:39:f3:9f:2d:c4:3a:d9:67:f0:0f:09:92:
         f7:c5:81:93:d3:a8:93:ed:d0:4c:41:4c:27:2e:fc:1f:f4:dc:
         77:51:32:ad:c5:8f:0d:a6:5b:fd:c0:64:a7:5a:87:5a:09:a2:
         29:61:66:22:d4:94:53:1c:41:dd:ac:9b:84:93:2c:7e:f8:bd:
         15:af:22:43:7c:dd:56:ab:13:f9:6c:04:f3:64:6b:11:29:a2:
         eb:2d:3e:29:d4:ad:28:e1:d6:65:f4:9a:ce:60:aa:d6:cc:9b:
         52:8e:66:b2:f3:24:c1:ef:22:44:9a:04:3b:41:54:db:04:01:
         d4:0e:66:08:2f:d3:79:a4:87:b5:ce:37:58:94:6d:d9:e7:2c:
         c5:a6:af:86:12:d1:45:9a:5a:32:31:e0:e4:97:aa:b9:98:a8:
         17:8b:d4:07:2e:f1:fb:36
-----BEGIN CERTIFICATE-----
MIIGQjCCBCqgAwIBAgIBAzANBgkqhkiG9w0BAQ0FADBdMQswCQYDVQQGEwJERTEZ
MBcGA1UECgwQRGFtYXNjaGtlc3RyLiAxMTEWMBQGA1UECwwNQXJiZWl0c3ppbW1l
cjEbMBkGA1UEAwwSRGFtYTExIExhYiBSb290IENBMB4XDTE5MTAyNzEyMDQ1MFoX
DTI1MTIzMTIzNTk1OVowajELMAkGA1UEBhMCREUxGTAXBgNVBAoMEERhbWFzY2hr
ZXN0ci4gMTExFjAUBgNVBAsMDUFyYmVpdHN6aW1tZXIxKDAmBgNVBAMMH0RhbWEx
MSBMYWIgSW50ZXJtZWRpYXJ5IFRlc3QgQ0EwggIiMA0GCSqGSIb3DQEBAQUAA4IC
DwAwggIKAoICAQC1r96Y4pUg0NWxXziknw/eyHl3VTayyqxiGeir9p0BwTmW7JZ7
xztFgdJn1WX2dXCIRHdXrch0tUOfyps9rPceUhAuqPjMOVdSpa96GUn9AwwXTMDG
l5w7DDUyrxYH9Eri0kL/oo489QJ/hzp/UiO+DO6YK6u9veCtiGEd1kC/EBc772lF
FsRli4625zZ/dWxkJbG490K0PMtY8Bjsl6ObNeq9AxHYOoCtrbqVnDwOKhY7gRz7
dCFdFTBfPPhmMoXjszd8r0gRHxtzWZ69v69Bo9IowWf1tH5uNEXzTkn5wCO7IQbR
0+nJ+a9Zrn5FwJHRzuNf6K9RgMROa1I4bZTI9cG8pBzuQ2POYbzJN0fYvwEcODHB
UM2SDj6IfVu8D70mGA/8OWfyYetOx/ZSi6SLYL8ant1G0gLak19Hb8cu84SZhyse
FYYahDlvs9cLCBuFchZP4voLBS9y5f5kHJl8vC1S/9qtKafHdMAYD2XU5PRfggWJ
ua+yuFtN6FJYjTkVMZCrEgJURxcjOSx8Ep7x721pyx3pMYFwdPN8sAhqN09Bv9cr
b5s2DHmgOhdsLUccP5/NgHDBqoZWcC5dZKuhpAub6xHpHFql2zadXhPf41zQB/aO
IFgPJHcL1XN05d7dAvQUrI7GaeDuxBHUA6JNQDx9eIlJkzs0gk2nzAp8RwIDAQAB
o4H/MIH8MA4GA1UdDwEB/wQEAwIBBjAPBgNVHRMBAf8EBTADAQH/MB0GA1UdDgQW
BBTomiXWMUHCx0MQR9pk52lKw/NLJzAfBgNVHSMEGDAWgBQBsi1WPId/qF9hvFgB
vx79SsrKjTBRBggrBgEFBQcBAQRFMEMwQQYIKwYBBQUHMAKGNWh0dHBzOi8vZWxi
b3Nzby5naXRodWIuaW8veDUwOS8vRGFtYTExX1Jvb3RfQ0EtY2EuY3J0MEYGA1Ud
HwQ/MD0wO6A5oDeGNWh0dHBzOi8vZWxib3Nzby5naXRodWIuaW8veDUwOS8vRGFt
YTExX1Jvb3RfQ0EtY2EuY3JsMA0GCSqGSIb3DQEBDQUAA4ICAQAIXt1vyNKKsiuN
LtdvfU8CngeTGLLLYkr5hC0CE5IlXbFaIx9qLdMy1Wte5bRxUrliKT3PrHhc2Kmj
AAtlAjba74bd+ZvT7l252obKQLebyCgrA6IQfCU9Mu5QAWSRr4fyvduyDtGqAJOv
kNJQqVG+YPc8Smi9eJ9vlKCzMIEuN5PY936lEWaCrk61ZjfoiT3hceUJJuBNP6gS
cnGHNY/tY7Vh+wazbsbYTlXZ7izaM7v/ikGUF1EvxLoShqZ7Iecnqc7C1T2NgBZL
XJHrnjDqqKDssBx5U+QzTmA9BaKMUsjLWy9PL7pIairQf8CFC2e0AISWAPYMApc5
G81pDEWVqNo3eHd9+O5TT6GNJ2zjTUWWbhj8Mh0QPMEAtzrO3FKVlAz5v8KYBFH4
Hxft0ncRBFDVL89m7TD3q9ylpbCP0E9GGET3C08vhWlY9GLWo5U+U4j3FWMZX8YK
F/U5858txDrZZ/APCZL3xYGT06iT7dBMQUwnLvwf9Nx3UTKtxY8Nplv9wGSnWoda
CaIpYWYi1JRTHEHdrJuEkyx++L0VryJDfN1WqxP5bATzZGsRKaLrLT4p1K0o4dZl
9JrOYKrWzJtSjmay8yTB7yJEmgQ7QVTbBAHUDmYIL9N5pIe1zjdYlG3Z5yzFpq+G
EtFFmloyMeDkl6q5mKgXi9QHLvH7Ng==
-----END CERTIFICATE-----
Certificate:
    Data:
        Version: 3 (0x2)
        Serial Number: 1 (0x1)
        Signature Algorithm: sha512WithRSAEncryption
        Issuer: C=DE, O=Damaschkestr. 11, OU=Arbeitszimmer, CN=Dama11 Lab Root CA
        Validity
            Not Before: Oct 13 15:06:45 2019 GMT
            Not After : Dec 31 23:59:59 2030 GMT
        Subject: C=DE, O=Damaschkestr. 11, OU=Arbeitszimmer, CN=Dama11 Lab Root CA
        Subject Public Key Info:
            Public Key Algorithm: rsaEncryption
                RSA Public-Key: (4096 bit)
                Modulus:
                    00:d6:a6:56:d0:a3:79:02:5e:ea:c3:eb:12:43:1c:
                    b5:bc:7a:2b:49:a1:5b:0d:f9:cb:34:be:7b:df:68:
                    9e:6d:5b:4b:2b:b9:ab:80:a3:58:da:e5:28:8f:04:
                    1a:0c:55:54:f0:3a:05:e5:ef:66:da:12:9a:68:1b:
                    06:f8:be:3c:01:cf:a5:c4:a8:91:05:db:93:62:5c:
                    b0:91:df:aa:f6:6b:80:ae:8e:41:ee:89:7b:63:43:
                    b4:52:94:30:d1:50:5a:00:c6:5c:3d:f2:1f:47:19:
                    e7:6a:4d:73:bc:66:2e:d6:f1:72:3f:5c:6e:d5:7e:
                    ec:42:6a:00:1f:0b:a2:ef:0c:84:d8:c6:16:6b:ce:
                    81:04:05:44:63:f7:3d:b5:f9:f3:f5:fc:64:7c:5d:
                    a7:a3:0f:0c:a2:df:00:88:2e:08:9d:3d:4e:87:86:
                    1f:c7:76:6d:49:6d:ea:82:fc:ab:fa:29:44:77:c1:
                    6b:3a:0c:d3:67:dd:10:36:b6:8e:26:be:cd:24:59:
                    00:21:a7:b7:e2:6f:f3:a4:8b:62:d4:b0:b7:69:4d:
                    16:2d:e6:31:98:c7:4d:63:fa:c1:60:6f:70:73:4d:
                    4f:61:39:e6:d9:1b:4d:a5:c6:d5:7f:e4:b2:a5:89:
                    3d:5b:a9:6f:e2:c9:97:83:d3:22:0e:5f:3f:ec:5b:
                    d3:bc:cf:0a:39:e8:5b:6e:c4:08:41:54:41:c6:8d:
                    c9:09:cb:f0:f5:24:0c:91:f3:a6:98:d8:2a:cb:b3:
                    d3:5e:9b:40:f8:0e:b2:51:0a:95:e7:de:e5:4c:ba:
                    a0:88:dd:81:f2:d2:66:30:81:19:7e:9c:7d:6c:d0:
                    04:78:a1:49:63:57:12:1a:c6:29:b6:7c:c6:bf:bc:
                    18:45:63:ab:f9:77:7e:87:a9:76:b0:37:ec:ae:45:
                    71:4b:61:13:18:d0:d4:14:39:d6:b3:f0:d4:74:8e:
                    c8:7f:cb:d1:03:dc:fa:64:5b:2c:9f:80:e0:d5:2b:
                    fd:ef:c2:31:54:20:bc:9a:d0:14:41:3a:2d:30:dc:
                    ce:75:fc:eb:7f:92:ef:1c:6c:bc:2c:2d:c9:0e:e4:
                    5b:54:72:cb:0a:6b:bf:d4:ab:4d:90:ab:dc:1f:a0:
                    53:d1:2a:c7:91:69:e2:e2:73:87:04:f2:1f:b2:36:
                    a9:b0:e9:4d:62:16:11:5f:ef:5a:8d:d9:38:dc:3d:
                    bb:c0:0f:eb:50:f8:d3:f7:36:07:eb:c5:e4:5f:d4:
                    4a:22:96:87:94:a6:86:1e:62:57:8e:89:f3:30:79:
                    40:25:d7:1e:ed:40:11:67:65:d9:b8:98:ba:44:0d:
                    77:d2:c9:e3:37:68:a7:2e:5f:31:0e:60:90:1f:85:
                    ea:e9:91
                Exponent: 65537 (0x10001)
        X509v3 extensions:
            X509v3 Key Usage: critical
                Certificate Sign, CRL Sign
            X509v3 Basic Constraints: critical
                CA:TRUE
            X509v3 Subject Key Identifier: 
                01:B2:2D:56:3C:87:7F:A8:5F:61:BC:58:01:BF:1E:FD:4A:CA:CA:8D
            X509v3 Authority Key Identifier: 
                keyid:01:B2:2D:56:3C:87:7F:A8:5F:61:BC:58:01:BF:1E:FD:4A:CA:CA:8D

    Signature Algorithm: sha512WithRSAEncryption
         41:75:85:d7:1a:57:30:b4:72:8b:ed:71:c3:f3:cb:90:a2:c9:
         06:05:53:e7:fe:8d:2e:e6:41:64:32:8f:1d:41:01:81:b2:0e:
         9c:a3:d7:9e:70:68:48:52:06:b5:38:a4:8e:60:1e:d8:da:90:
         44:02:c0:84:05:38:21:17:77:49:98:1f:42:92:34:94:78:3f:
         85:30:81:7e:98:af:1d:f5:fc:b5:75:ce:05:46:8f:5c:d7:08:
         f7:1e:b4:51:77:14:2f:74:ef:42:46:d2:cb:c2:8e:51:f3:bb:
         07:e5:d4:26:b1:6b:b2:9a:33:b0:2a:5c:f0:be:24:1e:c4:8f:
         77:e7:71:95:3f:90:36:d6:16:01:c2:31:ce:53:97:15:e6:7c:
         bc:6d:4c:50:10:56:10:70:80:26:93:f9:69:d3:f2:46:18:f6:
         2d:19:1f:b2:cf:60:8e:64:30:67:f2:66:11:11:7b:03:a6:73:
         5b:54:7a:65:7c:4c:12:c9:bc:e1:5d:fc:80:d2:0e:46:10:62:
         8e:5d:dc:c5:72:a5:4c:f8:83:a7:92:d9:81:c2:d6:03:bf:d5:
         ea:31:d7:16:de:a1:d2:59:b9:30:75:0f:e5:42:ff:fe:94:1f:
         e1:4f:c8:17:85:eb:23:92:cb:6f:59:78:dd:eb:31:6e:c2:03:
         cf:e0:54:6f:11:a0:bb:65:ad:c7:df:b4:4d:30:a8:6a:ff:8e:
         84:a1:4e:4a:76:ad:34:8e:03:0a:b3:48:2d:d3:e6:f7:76:01:
         0c:b6:98:19:52:9d:d2:62:b3:96:f0:4d:5d:21:e6:53:54:bc:
         79:68:de:c2:a6:06:5b:26:c7:94:2a:36:91:7f:11:a2:ef:2b:
         b1:3d:0a:55:66:24:6e:d7:6b:68:05:a7:e6:ce:11:e6:cf:c0:
         95:29:cb:43:e5:1e:61:df:48:f6:63:52:fa:28:2c:4f:96:04:
         bb:cc:5f:2b:c2:bf:8c:fd:94:97:96:51:73:7f:96:b6:73:c6:
         b2:3c:32:6c:25:f4:12:5a:cf:6a:70:29:01:f8:4b:b0:71:53:
         48:ce:68:ca:d7:70:58:5e:90:7c:29:d3:b9:25:8d:c2:ef:87:
         20:d4:a2:28:c8:70:b1:dd:10:a9:51:8f:39:0c:e9:a6:91:18:
         dc:51:87:22:72:9c:f2:36:b5:ee:ee:2e:99:59:68:96:9f:ab:
         d7:5d:34:3b:c3:35:8f:86:f2:80:89:c2:f4:84:b4:99:a5:84:
         e8:40:f5:83:cf:2c:86:a5:43:86:b8:fe:57:fd:69:e3:f0:70:
         de:94:7f:b1:c4:8b:76:d5:7d:f4:47:ed:8a:f8:99:b5:ff:83:
         d9:7b:a4:38:6a:46:98:9c
-----BEGIN CERTIFICATE-----
MIIFmDCCA4CgAwIBAgIBATANBgkqhkiG9w0BAQ0FADBdMQswCQYDVQQGEwJERTEZ
MBcGA1UECgwQRGFtYXNjaGtlc3RyLiAxMTEWMBQGA1UECwwNQXJiZWl0c3ppbW1l
cjEbMBkGA1UEAwwSRGFtYTExIExhYiBSb290IENBMB4XDTE5MTAxMzE1MDY0NVoX
DTMwMTIzMTIzNTk1OVowXTELMAkGA1UEBhMCREUxGTAXBgNVBAoMEERhbWFzY2hr
ZXN0ci4gMTExFjAUBgNVBAsMDUFyYmVpdHN6aW1tZXIxGzAZBgNVBAMMEkRhbWEx
MSBMYWIgUm9vdCBDQTCCAiIwDQYJKoZIhvcNAQEBBQADggIPADCCAgoCggIBANam
VtCjeQJe6sPrEkMctbx6K0mhWw35yzS+e99onm1bSyu5q4CjWNrlKI8EGgxVVPA6
BeXvZtoSmmgbBvi+PAHPpcSokQXbk2JcsJHfqvZrgK6OQe6Je2NDtFKUMNFQWgDG
XD3yH0cZ52pNc7xmLtbxcj9cbtV+7EJqAB8Lou8MhNjGFmvOgQQFRGP3PbX58/X8
ZHxdp6MPDKLfAIguCJ09ToeGH8d2bUlt6oL8q/opRHfBazoM02fdEDa2jia+zSRZ
ACGnt+Jv86SLYtSwt2lNFi3mMZjHTWP6wWBvcHNNT2E55tkbTaXG1X/ksqWJPVup
b+LJl4PTIg5fP+xb07zPCjnoW27ECEFUQcaNyQnL8PUkDJHzppjYKsuz016bQPgO
slEKlefe5Uy6oIjdgfLSZjCBGX6cfWzQBHihSWNXEhrGKbZ8xr+8GEVjq/l3foep
drA37K5FcUthExjQ1BQ51rPw1HSOyH/L0QPc+mRbLJ+A4NUr/e/CMVQgvJrQFEE6
LTDcznX863+S7xxsvCwtyQ7kW1Ryywprv9SrTZCr3B+gU9Eqx5Fp4uJzhwTyH7I2
qbDpTWIWEV/vWo3ZONw9u8AP61D40/c2B+vF5F/USiKWh5Smhh5iV46J8zB5QCXX
Hu1AEWdl2biYukQNd9LJ4zdopy5fMQ5gkB+F6umRAgMBAAGjYzBhMA4GA1UdDwEB
/wQEAwIBBjAPBgNVHRMBAf8EBTADAQH/MB0GA1UdDgQWBBQBsi1WPId/qF9hvFgB
vx79SsrKjTAfBgNVHSMEGDAWgBQBsi1WPId/qF9hvFgBvx79SsrKjTANBgkqhkiG
9w0BAQ0FAAOCAgEAQXWF1xpXMLRyi+1xw/PLkKLJBgVT5/6NLuZBZDKPHUEBgbIO
nKPXnnBoSFIGtTikjmAe2NqQRALAhAU4IRd3SZgfQpI0lHg/hTCBfpivHfX8tXXO
BUaPXNcI9x60UXcUL3TvQkbSy8KOUfO7B+XUJrFrspozsCpc8L4kHsSPd+dxlT+Q
NtYWAcIxzlOXFeZ8vG1MUBBWEHCAJpP5adPyRhj2LRkfss9gjmQwZ/JmERF7A6Zz
W1R6ZXxMEsm84V38gNIORhBijl3cxXKlTPiDp5LZgcLWA7/V6jHXFt6h0lm5MHUP
5UL//pQf4U/IF4XrI5LLb1l43esxbsIDz+BUbxGgu2Wtx9+0TTCoav+OhKFOSnat
NI4DCrNILdPm93YBDLaYGVKd0mKzlvBNXSHmU1S8eWjewqYGWybHlCo2kX8Rou8r
sT0KVWYkbtdraAWn5s4R5s/AlSnLQ+UeYd9I9mNS+igsT5YEu8xfK8K/jP2Ul5ZR
c3+WtnPGsjwybCX0ElrPanApAfhLsHFTSM5oytdwWF6QfCnTuSWNwu+HINSiKMhw
sd0QqVGPOQzpppEY3FGHInKc8ja17u4umVlolp+r1100O8M1j4bygInC9IS0maWE
6ED1g88shqVDhrj+V/1p4/Bw3pR/scSLdtV99EftiviZtf+D2XukOGpGmJw=
-----END CERTIFICATE-----
