Certificate:
    Data:
        Version: 3 (0x2)
        Serial Number: 1 (0x1)
        Signature Algorithm: sha512WithRSAEncryption
        Issuer: C=DE, O=Damaschkestr. 11, OU=Arbeitszimmer, CN=Dama11 Lab Root CA
        Validity
            Not Before: Oct 13 15:06:45 2019 GMT
            Not After : Dec 31 23:59:59 2030 GMT
        Subject: C=DE, O=Damaschkestr. 11, OU=Arbeitszimmer, CN=Dama11 Lab Root CA
        Subject Public Key Info:
            Public Key Algorithm: rsaEncryption
                RSA Public-Key: (4096 bit)
                Modulus:
                    00:d6:a6:56:d0:a3:79:02:5e:ea:c3:eb:12:43:1c:
                    b5:bc:7a:2b:49:a1:5b:0d:f9:cb:34:be:7b:df:68:
                    9e:6d:5b:4b:2b:b9:ab:80:a3:58:da:e5:28:8f:04:
                    1a:0c:55:54:f0:3a:05:e5:ef:66:da:12:9a:68:1b:
                    06:f8:be:3c:01:cf:a5:c4:a8:91:05:db:93:62:5c:
                    b0:91:df:aa:f6:6b:80:ae:8e:41:ee:89:7b:63:43:
                    b4:52:94:30:d1:50:5a:00:c6:5c:3d:f2:1f:47:19:
                    e7:6a:4d:73:bc:66:2e:d6:f1:72:3f:5c:6e:d5:7e:
                    ec:42:6a:00:1f:0b:a2:ef:0c:84:d8:c6:16:6b:ce:
                    81:04:05:44:63:f7:3d:b5:f9:f3:f5:fc:64:7c:5d:
                    a7:a3:0f:0c:a2:df:00:88:2e:08:9d:3d:4e:87:86:
                    1f:c7:76:6d:49:6d:ea:82:fc:ab:fa:29:44:77:c1:
                    6b:3a:0c:d3:67:dd:10:36:b6:8e:26:be:cd:24:59:
                    00:21:a7:b7:e2:6f:f3:a4:8b:62:d4:b0:b7:69:4d:
                    16:2d:e6:31:98:c7:4d:63:fa:c1:60:6f:70:73:4d:
                    4f:61:39:e6:d9:1b:4d:a5:c6:d5:7f:e4:b2:a5:89:
                    3d:5b:a9:6f:e2:c9:97:83:d3:22:0e:5f:3f:ec:5b:
                    d3:bc:cf:0a:39:e8:5b:6e:c4:08:41:54:41:c6:8d:
                    c9:09:cb:f0:f5:24:0c:91:f3:a6:98:d8:2a:cb:b3:
                    d3:5e:9b:40:f8:0e:b2:51:0a:95:e7:de:e5:4c:ba:
                    a0:88:dd:81:f2:d2:66:30:81:19:7e:9c:7d:6c:d0:
                    04:78:a1:49:63:57:12:1a:c6:29:b6:7c:c6:bf:bc:
                    18:45:63:ab:f9:77:7e:87:a9:76:b0:37:ec:ae:45:
                    71:4b:61:13:18:d0:d4:14:39:d6:b3:f0:d4:74:8e:
                    c8:7f:cb:d1:03:dc:fa:64:5b:2c:9f:80:e0:d5:2b:
                    fd:ef:c2:31:54:20:bc:9a:d0:14:41:3a:2d:30:dc:
                    ce:75:fc:eb:7f:92:ef:1c:6c:bc:2c:2d:c9:0e:e4:
                    5b:54:72:cb:0a:6b:bf:d4:ab:4d:90:ab:dc:1f:a0:
                    53:d1:2a:c7:91:69:e2:e2:73:87:04:f2:1f:b2:36:
                    a9:b0:e9:4d:62:16:11:5f:ef:5a:8d:d9:38:dc:3d:
                    bb:c0:0f:eb:50:f8:d3:f7:36:07:eb:c5:e4:5f:d4:
                    4a:22:96:87:94:a6:86:1e:62:57:8e:89:f3:30:79:
                    40:25:d7:1e:ed:40:11:67:65:d9:b8:98:ba:44:0d:
                    77:d2:c9:e3:37:68:a7:2e:5f:31:0e:60:90:1f:85:
                    ea:e9:91
                Exponent: 65537 (0x10001)
        X509v3 extensions:
            X509v3 Key Usage: critical
                Certificate Sign, CRL Sign
            X509v3 Basic Constraints: critical
                CA:TRUE
            X509v3 Subject Key Identifier:
                01:B2:2D:56:3C:87:7F:A8:5F:61:BC:58:01:BF:1E:FD:4A:CA:CA:8D
            X509v3 Authority Key Identifier:
                keyid:01:B2:2D:56:3C:87:7F:A8:5F:61:BC:58:01:BF:1E:FD:4A:CA:CA:8D

    Signature Algorithm: sha512WithRSAEncryption
         41:75:85:d7:1a:57:30:b4:72:8b:ed:71:c3:f3:cb:90:a2:c9:
         06:05:53:e7:fe:8d:2e:e6:41:64:32:8f:1d:41:01:81:b2:0e:
         9c:a3:d7:9e:70:68:48:52:06:b5:38:a4:8e:60:1e:d8:da:90:
         44:02:c0:84:05:38:21:17:77:49:98:1f:42:92:34:94:78:3f:
         85:30:81:7e:98:af:1d:f5:fc:b5:75:ce:05:46:8f:5c:d7:08:
         f7:1e:b4:51:77:14:2f:74:ef:42:46:d2:cb:c2:8e:51:f3:bb:
         07:e5:d4:26:b1:6b:b2:9a:33:b0:2a:5c:f0:be:24:1e:c4:8f:
         77:e7:71:95:3f:90:36:d6:16:01:c2:31:ce:53:97:15:e6:7c:
         bc:6d:4c:50:10:56:10:70:80:26:93:f9:69:d3:f2:46:18:f6:
         2d:19:1f:b2:cf:60:8e:64:30:67:f2:66:11:11:7b:03:a6:73:
         5b:54:7a:65:7c:4c:12:c9:bc:e1:5d:fc:80:d2:0e:46:10:62:
         8e:5d:dc:c5:72:a5:4c:f8:83:a7:92:d9:81:c2:d6:03:bf:d5:
         ea:31:d7:16:de:a1:d2:59:b9:30:75:0f:e5:42:ff:fe:94:1f:
         e1:4f:c8:17:85:eb:23:92:cb:6f:59:78:dd:eb:31:6e:c2:03:
         cf:e0:54:6f:11:a0:bb:65:ad:c7:df:b4:4d:30:a8:6a:ff:8e:
         84:a1:4e:4a:76:ad:34:8e:03:0a:b3:48:2d:d3:e6:f7:76:01:
         0c:b6:98:19:52:9d:d2:62:b3:96:f0:4d:5d:21:e6:53:54:bc:
         79:68:de:c2:a6:06:5b:26:c7:94:2a:36:91:7f:11:a2:ef:2b:
         b1:3d:0a:55:66:24:6e:d7:6b:68:05:a7:e6:ce:11:e6:cf:c0:
         95:29:cb:43:e5:1e:61:df:48:f6:63:52:fa:28:2c:4f:96:04:
         bb:cc:5f:2b:c2:bf:8c:fd:94:97:96:51:73:7f:96:b6:73:c6:
         b2:3c:32:6c:25:f4:12:5a:cf:6a:70:29:01:f8:4b:b0:71:53:
         48:ce:68:ca:d7:70:58:5e:90:7c:29:d3:b9:25:8d:c2:ef:87:
         20:d4:a2:28:c8:70:b1:dd:10:a9:51:8f:39:0c:e9:a6:91:18:
         dc:51:87:22:72:9c:f2:36:b5:ee:ee:2e:99:59:68:96:9f:ab:
         d7:5d:34:3b:c3:35:8f:86:f2:80:89:c2:f4:84:b4:99:a5:84:
         e8:40:f5:83:cf:2c:86:a5:43:86:b8:fe:57:fd:69:e3:f0:70:
         de:94:7f:b1:c4:8b:76:d5:7d:f4:47:ed:8a:f8:99:b5:ff:83:
         d9:7b:a4:38:6a:46:98:9c
-----BEGIN CERTIFICATE-----
MIIFmDCCA4CgAwIBAgIBATANBgkqhkiG9w0BAQ0FADBdMQswCQYDVQQGEwJERTEZ
MBcGA1UECgwQRGFtYXNjaGtlc3RyLiAxMTEWMBQGA1UECwwNQXJiZWl0c3ppbW1l
cjEbMBkGA1UEAwwSRGFtYTExIExhYiBSb290IENBMB4XDTE5MTAxMzE1MDY0NVoX
DTMwMTIzMTIzNTk1OVowXTELMAkGA1UEBhMCREUxGTAXBgNVBAoMEERhbWFzY2hr
ZXN0ci4gMTExFjAUBgNVBAsMDUFyYmVpdHN6aW1tZXIxGzAZBgNVBAMMEkRhbWEx
MSBMYWIgUm9vdCBDQTCCAiIwDQYJKoZIhvcNAQEBBQADggIPADCCAgoCggIBANam
VtCjeQJe6sPrEkMctbx6K0mhWw35yzS+e99onm1bSyu5q4CjWNrlKI8EGgxVVPA6
BeXvZtoSmmgbBvi+PAHPpcSokQXbk2JcsJHfqvZrgK6OQe6Je2NDtFKUMNFQWgDG
XD3yH0cZ52pNc7xmLtbxcj9cbtV+7EJqAB8Lou8MhNjGFmvOgQQFRGP3PbX58/X8
ZHxdp6MPDKLfAIguCJ09ToeGH8d2bUlt6oL8q/opRHfBazoM02fdEDa2jia+zSRZ
ACGnt+Jv86SLYtSwt2lNFi3mMZjHTWP6wWBvcHNNT2E55tkbTaXG1X/ksqWJPVup
b+LJl4PTIg5fP+xb07zPCjnoW27ECEFUQcaNyQnL8PUkDJHzppjYKsuz016bQPgO
slEKlefe5Uy6oIjdgfLSZjCBGX6cfWzQBHihSWNXEhrGKbZ8xr+8GEVjq/l3foep
drA37K5FcUthExjQ1BQ51rPw1HSOyH/L0QPc+mRbLJ+A4NUr/e/CMVQgvJrQFEE6
LTDcznX863+S7xxsvCwtyQ7kW1Ryywprv9SrTZCr3B+gU9Eqx5Fp4uJzhwTyH7I2
qbDpTWIWEV/vWo3ZONw9u8AP61D40/c2B+vF5F/USiKWh5Smhh5iV46J8zB5QCXX
Hu1AEWdl2biYukQNd9LJ4zdopy5fMQ5gkB+F6umRAgMBAAGjYzBhMA4GA1UdDwEB
/wQEAwIBBjAPBgNVHRMBAf8EBTADAQH/MB0GA1UdDgQWBBQBsi1WPId/qF9hvFgB
vx79SsrKjTAfBgNVHSMEGDAWgBQBsi1WPId/qF9hvFgBvx79SsrKjTANBgkqhkiG
9w0BAQ0FAAOCAgEAQXWF1xpXMLRyi+1xw/PLkKLJBgVT5/6NLuZBZDKPHUEBgbIO
nKPXnnBoSFIGtTikjmAe2NqQRALAhAU4IRd3SZgfQpI0lHg/hTCBfpivHfX8tXXO
BUaPXNcI9x60UXcUL3TvQkbSy8KOUfO7B+XUJrFrspozsCpc8L4kHsSPd+dxlT+Q
NtYWAcIxzlOXFeZ8vG1MUBBWEHCAJpP5adPyRhj2LRkfss9gjmQwZ/JmERF7A6Zz
W1R6ZXxMEsm84V38gNIORhBijl3cxXKlTPiDp5LZgcLWA7/V6jHXFt6h0lm5MHUP
5UL//pQf4U/IF4XrI5LLb1l43esxbsIDz+BUbxGgu2Wtx9+0TTCoav+OhKFOSnat
NI4DCrNILdPm93YBDLaYGVKd0mKzlvBNXSHmU1S8eWjewqYGWybHlCo2kX8Rou8r
sT0KVWYkbtdraAWn5s4R5s/AlSnLQ+UeYd9I9mNS+igsT5YEu8xfK8K/jP2Ul5ZR
c3+WtnPGsjwybCX0ElrPanApAfhLsHFTSM5oytdwWF6QfCnTuSWNwu+HINSiKMhw
sd0QqVGPOQzpppEY3FGHInKc8ja17u4umVlolp+r1100O8M1j4bygInC9IS0maWE
6ED1g88shqVDhrj+V/1p4/Bw3pR/scSLdtV99EftiviZtf+D2XukOGpGmJw=
-----END CERTIFICATE-----
